target datalayout = "e-m:e-p270:32:32-p271:32:32-p272:64:64-i64:64-i128:128-f80:128-n8:16:32:64-S128"
target triple = "x86_64-pc-linux-gnu"

%struct._zend_refcounted_h = type { i32, %union.anon.3 }
%union.anon.3 = type { i32 }
%struct._zend_string = type { %struct._zend_refcounted_h, i64, i64, [1 x i8] }

@_generic_superset_name = internal constant [8 x i8] c"UCS-4LE\00", align 1

; Function Attrs: alwaysinline nounwind uwtable
define internal void @zend_string_efree(ptr noundef %0) #4 {
  %2 = alloca ptr, align 8
  store ptr %0, ptr %2, align 8, !tbaa !28
  %3 = load ptr, ptr %2, align 8, !tbaa !28
  call void @_efree(ptr noundef %3)
  ret void
}

; Function Attrs: nounwind uwtable
define internal i32 @_php_iconv_strpos(ptr noundef %0, ptr noundef %1, i64 noundef %2, ptr noundef %3, i64 noundef %4, i64 noundef %5, ptr noundef %6, i1 noundef zeroext %7) #0 {
  %9 = alloca i32, align 4
  %10 = alloca ptr, align 8
  %11 = alloca ptr, align 8
  %12 = alloca i64, align 8
  %13 = alloca ptr, align 8
  %14 = alloca i64, align 8
  %15 = alloca i64, align 8
  %16 = alloca ptr, align 8
  %17 = alloca i8, align 1
  %18 = alloca [4 x i8], align 1
  %19 = alloca i32, align 4
  %20 = alloca ptr, align 8
  %21 = alloca ptr, align 8
  %22 = alloca i64, align 8
  %23 = alloca ptr, align 8
  %24 = alloca i64, align 8
  %25 = alloca i64, align 8
  %26 = alloca ptr, align 8
  %27 = alloca ptr, align 8
  %28 = alloca i64, align 8
  %29 = alloca i64, align 8
  %30 = alloca i32, align 4
  %31 = alloca i64, align 8
  %32 = alloca i32, align 4
  %33 = alloca i64, align 8
  %34 = alloca i64, align 8
  %35 = alloca i64, align 8
  store ptr %0, ptr %10, align 8, !tbaa !67
  store ptr %1, ptr %11, align 8, !tbaa !23
  store i64 %2, ptr %12, align 8, !tbaa !24
  store ptr %3, ptr %13, align 8, !tbaa !23
  store i64 %4, ptr %14, align 8, !tbaa !24
  store i64 %5, ptr %15, align 8, !tbaa !24
  store ptr %6, ptr %16, align 8, !tbaa !23
  %36 = zext i1 %7 to i8
  store i8 %36, ptr %17, align 1, !tbaa !34
  call void @llvm.lifetime.start.p0(i64 4, ptr %18) #15
  call void @llvm.lifetime.start.p0(i64 4, ptr %19) #15
  store i32 0, ptr %19, align 4, !tbaa !4
  call void @llvm.lifetime.start.p0(i64 8, ptr %20) #15
  call void @llvm.lifetime.start.p0(i64 8, ptr %21) #15
  call void @llvm.lifetime.start.p0(i64 8, ptr %22) #15
  call void @llvm.lifetime.start.p0(i64 8, ptr %23) #15
  call void @llvm.lifetime.start.p0(i64 8, ptr %24) #15
  call void @llvm.lifetime.start.p0(i64 8, ptr %25) #15
  call void @llvm.lifetime.start.p0(i64 8, ptr %26) #15
  call void @llvm.lifetime.start.p0(i64 8, ptr %27) #15
  call void @llvm.lifetime.start.p0(i64 8, ptr %28) #15
  call void @llvm.lifetime.start.p0(i64 8, ptr %29) #15
  call void @llvm.lifetime.start.p0(i64 4, ptr %30) #15
  call void @llvm.lifetime.start.p0(i64 8, ptr %31) #15
  %37 = load ptr, ptr %10, align 8, !tbaa !67
  store i64 -1, ptr %37, align 8, !tbaa !24
  %38 = load ptr, ptr %13, align 8, !tbaa !23
  %39 = load i64, ptr %14, align 8, !tbaa !24
  %40 = load ptr, ptr %16, align 8, !tbaa !23
  %41 = call i32 @php_iconv_string(ptr noundef %38, i64 noundef %39, ptr noundef %26, ptr noundef @_generic_superset_name, ptr noundef %40)
  store i32 %41, ptr %19, align 4, !tbaa !4
  %42 = load i32, ptr %19, align 4, !tbaa !4
  %43 = icmp ne i32 %42, 0
  br i1 %43, label %44, label %51

44:                                               ; preds = %8
  %45 = load ptr, ptr %26, align 8, !tbaa !28
  %46 = icmp ne ptr %45, null
  br i1 %46, label %47, label %49

47:                                               ; preds = %44
  %48 = load ptr, ptr %26, align 8, !tbaa !28
  call void @zend_string_efree(ptr noundef %48)
  br label %49

49:                                               ; preds = %47, %44
  %50 = load i32, ptr %19, align 4, !tbaa !4
  store i32 %50, ptr %9, align 4
  store i32 1, ptr %32, align 4
  br label %239

51:                                               ; preds = %8
  %52 = load ptr, ptr %16, align 8, !tbaa !23
  %53 = call ptr @iconv_open(ptr noundef @_generic_superset_name, ptr noundef %52)
  store ptr %53, ptr %20, align 8, !tbaa !30
  %54 = load ptr, ptr %20, align 8, !tbaa !30
  %55 = icmp eq ptr %54, inttoptr (i64 -1 to ptr)
  br i1 %55, label %56, label %67

56:                                               ; preds = %51
  %57 = load ptr, ptr %26, align 8, !tbaa !28
  %58 = icmp ne ptr %57, null
  br i1 %58, label %59, label %61

59:                                               ; preds = %56
  %60 = load ptr, ptr %26, align 8, !tbaa !28
  call void @zend_string_efree(ptr noundef %60)
  br label %61

61:                                               ; preds = %59, %56
  %62 = call ptr @__errno_location() #16
  %63 = load i32, ptr %62, align 4, !tbaa !4
  %64 = icmp eq i32 %63, 22
  br i1 %64, label %65, label %66

65:                                               ; preds = %61
  store i32 2, ptr %9, align 4
  store i32 1, ptr %32, align 4
  br label %239

66:                                               ; preds = %61
  store i32 1, ptr %9, align 4
  store i32 1, ptr %32, align 4
  br label %239

67:                                               ; preds = %51
  %68 = load ptr, ptr %26, align 8, !tbaa !28
  %69 = getelementptr inbounds nuw %struct._zend_string, ptr %68, i32 0, i32 3
  %70 = getelementptr inbounds [1 x i8], ptr %69, i64 0, i64 0
  store ptr %70, ptr %27, align 8, !tbaa !23
  %71 = load ptr, ptr %26, align 8, !tbaa !28
  %72 = getelementptr inbounds nuw %struct._zend_string, ptr %71, i32 0, i32 2
  %73 = load i64, ptr %72, align 8, !tbaa !31
  store i64 %73, ptr %28, align 8, !tbaa !24
  store i64 -1, ptr %29, align 8, !tbaa !24
  %74 = load i64, ptr %12, align 8, !tbaa !24
  %75 = icmp ugt i64 %74, 0
  %76 = zext i1 %75 to i32
  store i32 %76, ptr %30, align 4, !tbaa !4
  %77 = load ptr, ptr %11, align 8, !tbaa !23
  store ptr %77, ptr %21, align 8, !tbaa !23
  %78 = load i64, ptr %12, align 8, !tbaa !24
  store i64 %78, ptr %22, align 8, !tbaa !24
  store i64 0, ptr %25, align 8, !tbaa !24
  br label %79

79:                                               ; preds = %219, %67
  %80 = load i32, ptr %30, align 4, !tbaa !4
  %81 = icmp ne i32 %80, 0
  br i1 %81, label %82, label %222

82:                                               ; preds = %79
  %83 = getelementptr inbounds [4 x i8], ptr %18, i64 0, i64 0
  store ptr %83, ptr %23, align 8, !tbaa !23
  store i64 4, ptr %24, align 8, !tbaa !24
  %84 = load i64, ptr %22, align 8, !tbaa !24
  %85 = icmp ugt i64 %84, 0
  %86 = zext i1 %85 to i32
  store i32 %86, ptr %30, align 4, !tbaa !4
  %87 = load ptr, ptr %20, align 8, !tbaa !30
  %88 = load i32, ptr %30, align 4, !tbaa !4
  %89 = icmp ne i32 %88, 0
  br i1 %89, label %90, label %91

90:                                               ; preds = %82
  br label %92

91:                                               ; preds = %82
  br label %92

92:                                               ; preds = %91, %90
  %93 = phi ptr [ %21, %90 ], [ null, %91 ]
  %94 = load i32, ptr %30, align 4, !tbaa !4
  %95 = icmp ne i32 %94, 0
  br i1 %95, label %96, label %97

96:                                               ; preds = %92
  br label %98

97:                                               ; preds = %92
  br label %98

98:                                               ; preds = %97, %96
  %99 = phi ptr [ %22, %96 ], [ null, %97 ]
  %100 = call i64 @iconv(ptr noundef %87, ptr noundef %93, ptr noundef %99, ptr noundef %23, ptr noundef %24)
  store i64 %100, ptr %31, align 8, !tbaa !24
  %101 = load i64, ptr %24, align 8, !tbaa !24
  %102 = icmp eq i64 %101, 4
  br i1 %102, label %103, label %104

103:                                              ; preds = %98
  br label %222

104:                                              ; preds = %98
  %105 = load i64, ptr %31, align 8, !tbaa !24
  %106 = icmp eq i64 %105, -1
  br i1 %106, label %107, label %114

107:                                              ; preds = %104
  %108 = call ptr @__errno_location() #16
  %109 = load i32, ptr %108, align 4, !tbaa !4
  switch i32 %109, label %112 [
    i32 22, label %110
    i32 84, label %111
    i32 7, label %113
  ]

110:                                              ; preds = %107
  store i32 5, ptr %19, align 4, !tbaa !4
  br label %113

111:                                              ; preds = %107
  store i32 4, ptr %19, align 4, !tbaa !4
  br label %113

112:                                              ; preds = %107
  store i32 6, ptr %19, align 4, !tbaa !4
  br label %113

113:                                              ; preds = %112, %107, %111, %110
  br label %114

114:                                              ; preds = %113, %104
  %115 = load i64, ptr %25, align 8, !tbaa !24
  %116 = load i64, ptr %15, align 8, !tbaa !24
  %117 = icmp uge i64 %115, %116
  br i1 %117, label %118, label %218

118:                                              ; preds = %114
  %119 = getelementptr inbounds [4 x i8], ptr %18, i64 0, i64 0
  %120 = load ptr, ptr %27, align 8, !tbaa !23
  %121 = call i32 @memcmp(ptr noundef %119, ptr noundef %120, i64 noundef 4) #17
  %122 = icmp eq i32 %121, 0
  br i1 %122, label %123, label %150

123:                                              ; preds = %118
  %124 = load i64, ptr %29, align 8, !tbaa !24
  %125 = icmp eq i64 %124, -1
  br i1 %125, label %126, label %128

126:                                              ; preds = %123
  %127 = load i64, ptr %25, align 8, !tbaa !24
  store i64 %127, ptr %29, align 8, !tbaa !24
  br label %128

128:                                              ; preds = %126, %123
  %129 = load ptr, ptr %27, align 8, !tbaa !23
  %130 = getelementptr inbounds i8, ptr %129, i64 4
  store ptr %130, ptr %27, align 8, !tbaa !23
  %131 = load i64, ptr %28, align 8, !tbaa !24
  %132 = sub i64 %131, 4
  store i64 %132, ptr %28, align 8, !tbaa !24
  %133 = load i64, ptr %28, align 8, !tbaa !24
  %134 = icmp eq i64 %133, 0
  br i1 %134, label %135, label %149

135:                                              ; preds = %128
  %136 = load i64, ptr %29, align 8, !tbaa !24
  %137 = load ptr, ptr %10, align 8, !tbaa !67
  store i64 %136, ptr %137, align 8, !tbaa !24
  %138 = load i8, ptr %17, align 1, !tbaa !34, !range !36, !noundef !37
  %139 = trunc i8 %138 to i1
  br i1 %139, label %140, label %147

140:                                              ; preds = %135
  %141 = load ptr, ptr %26, align 8, !tbaa !28
  %142 = getelementptr inbounds nuw %struct._zend_string, ptr %141, i32 0, i32 3
  %143 = getelementptr inbounds [1 x i8], ptr %142, i64 0, i64 0
  store ptr %143, ptr %27, align 8, !tbaa !23
  %144 = load ptr, ptr %26, align 8, !tbaa !28
  %145 = getelementptr inbounds nuw %struct._zend_string, ptr %144, i32 0, i32 2
  %146 = load i64, ptr %145, align 8, !tbaa !31
  store i64 %146, ptr %28, align 8, !tbaa !24
  store i64 -1, ptr %29, align 8, !tbaa !24
  br label %148

147:                                              ; preds = %135
  br label %222

148:                                              ; preds = %140
  br label %149

149:                                              ; preds = %148, %128
  br label %217

150:                                              ; preds = %118
  call void @llvm.lifetime.start.p0(i64 8, ptr %33) #15
  call void @llvm.lifetime.start.p0(i64 8, ptr %34) #15
  call void @llvm.lifetime.start.p0(i64 8, ptr %35) #15
  store i64 0, ptr %33, align 8, !tbaa !24
  store i64 4, ptr %34, align 8, !tbaa !24
  %151 = load ptr, ptr %27, align 8, !tbaa !23
  %152 = load ptr, ptr %26, align 8, !tbaa !28
  %153 = getelementptr inbounds nuw %struct._zend_string, ptr %152, i32 0, i32 3
  %154 = getelementptr inbounds [1 x i8], ptr %153, i64 0, i64 0
  %155 = ptrtoint ptr %151 to i64
  %156 = ptrtoint ptr %154 to i64
  %157 = sub i64 %155, %156
  store i64 %157, ptr %35, align 8, !tbaa !24
  br label %158

158:                                              ; preds = %180, %150
  %159 = load i64, ptr %34, align 8, !tbaa !24
  %160 = load i64, ptr %35, align 8, !tbaa !24
  %161 = icmp ult i64 %159, %160
  br i1 %161, label %162, label %183

162:                                              ; preds = %158
  %163 = load ptr, ptr %26, align 8, !tbaa !28
  %164 = getelementptr inbounds nuw %struct._zend_string, ptr %163, i32 0, i32 3
  %165 = load i64, ptr %34, align 8, !tbaa !24
  %166 = getelementptr inbounds nuw [1 x i8], ptr %164, i64 0, i64 %165
  %167 = load ptr, ptr %26, align 8, !tbaa !28
  %168 = getelementptr inbounds nuw %struct._zend_string, ptr %167, i32 0, i32 3
  %169 = load i64, ptr %33, align 8, !tbaa !24
  %170 = getelementptr inbounds nuw [1 x i8], ptr %168, i64 0, i64 %169
  %171 = call i32 @memcmp(ptr noundef %166, ptr noundef %170, i64 noundef 4) #17
  %172 = icmp eq i32 %171, 0
  br i1 %172, label %173, label %176

173:                                              ; preds = %162
  %174 = load i64, ptr %33, align 8, !tbaa !24
  %175 = add i64 %174, 4
  store i64 %175, ptr %33, align 8, !tbaa !24
  br label %180

176:                                              ; preds = %162
  %177 = load i64, ptr %33, align 8, !tbaa !24
  %178 = load i64, ptr %34, align 8, !tbaa !24
  %179 = sub i64 %178, %177
  store i64 %179, ptr %34, align 8, !tbaa !24
  store i64 0, ptr %33, align 8, !tbaa !24
  br label %180

180:                                              ; preds = %176, %173
  %181 = load i64, ptr %34, align 8, !tbaa !24
  %182 = add i64 %181, 4
  store i64 %182, ptr %34, align 8, !tbaa !24
  br label %158

183:                                              ; preds = %158
  %184 = getelementptr inbounds [4 x i8], ptr %18, i64 0, i64 0
  %185 = load ptr, ptr %26, align 8, !tbaa !28
  %186 = getelementptr inbounds nuw %struct._zend_string, ptr %185, i32 0, i32 3
  %187 = load i64, ptr %33, align 8, !tbaa !24
  %188 = getelementptr inbounds nuw [1 x i8], ptr %186, i64 0, i64 %187
  %189 = call i32 @memcmp(ptr noundef %184, ptr noundef %188, i64 noundef 4) #17
  %190 = icmp eq i32 %189, 0
  br i1 %190, label %191, label %209

191:                                              ; preds = %183
  %192 = load i64, ptr %35, align 8, !tbaa !24
  %193 = load i64, ptr %33, align 8, !tbaa !24
  %194 = sub i64 %192, %193
  %195 = udiv i64 %194, 4
  %196 = load i64, ptr %29, align 8, !tbaa !24
  %197 = add i64 %196, %195
  store i64 %197, ptr %29, align 8, !tbaa !24
  %198 = load i64, ptr %33, align 8, !tbaa !24
  %199 = add i64 %198, 4
  store i64 %199, ptr %33, align 8, !tbaa !24
  %200 = load ptr, ptr %26, align 8, !tbaa !28
  %201 = getelementptr inbounds nuw %struct._zend_string, ptr %200, i32 0, i32 3
  %202 = load i64, ptr %33, align 8, !tbaa !24
  %203 = getelementptr inbounds nuw [1 x i8], ptr %201, i64 0, i64 %202
  store ptr %203, ptr %27, align 8, !tbaa !23
  %204 = load ptr, ptr %26, align 8, !tbaa !28
  %205 = getelementptr inbounds nuw %struct._zend_string, ptr %204, i32 0, i32 2
  %206 = load i64, ptr %205, align 8, !tbaa !31
  %207 = load i64, ptr %33, align 8, !tbaa !24
  %208 = sub i64 %206, %207
  store i64 %208, ptr %28, align 8, !tbaa !24
  br label %216

209:                                              ; preds = %183
  store i64 -1, ptr %29, align 8, !tbaa !24
  %210 = load ptr, ptr %26, align 8, !tbaa !28
  %211 = getelementptr inbounds nuw %struct._zend_string, ptr %210, i32 0, i32 3
  %212 = getelementptr inbounds [1 x i8], ptr %211, i64 0, i64 0
  store ptr %212, ptr %27, align 8, !tbaa !23
  %213 = load ptr, ptr %26, align 8, !tbaa !28
  %214 = getelementptr inbounds nuw %struct._zend_string, ptr %213, i32 0, i32 2
  %215 = load i64, ptr %214, align 8, !tbaa !31
  store i64 %215, ptr %28, align 8, !tbaa !24
  br label %216

216:                                              ; preds = %209, %191
  call void @llvm.lifetime.end.p0(i64 8, ptr %35) #15
  call void @llvm.lifetime.end.p0(i64 8, ptr %34) #15
  call void @llvm.lifetime.end.p0(i64 8, ptr %33) #15
  br label %217

217:                                              ; preds = %216, %149
  br label %218

218:                                              ; preds = %217, %114
  br label %219

219:                                              ; preds = %218
  %220 = load i64, ptr %25, align 8, !tbaa !24
  %221 = add i64 %220, 1
  store i64 %221, ptr %25, align 8, !tbaa !24
  br label %79

222:                                              ; preds = %147, %103, %79
  %223 = load ptr, ptr %26, align 8, !tbaa !28
  %224 = icmp ne ptr %223, null
  br i1 %224, label %225, label %227

225:                                              ; preds = %222
  %226 = load ptr, ptr %26, align 8, !tbaa !28
  call void @zend_string_efree(ptr noundef %226)
  br label %227

227:                                              ; preds = %225, %222
  %228 = load ptr, ptr %20, align 8, !tbaa !30
  %229 = call i32 @iconv_close(ptr noundef %228)
  %230 = load i32, ptr %19, align 4, !tbaa !4
  %231 = icmp eq i32 %230, 0
  br i1 %231, label %232, label %237

232:                                              ; preds = %227
  %233 = load i64, ptr %15, align 8, !tbaa !24
  %234 = load i64, ptr %25, align 8, !tbaa !24
  %235 = icmp ugt i64 %233, %234
  br i1 %235, label %236, label %237

236:                                              ; preds = %232
  store i32 9, ptr %9, align 4
  store i32 1, ptr %32, align 4
  br label %239

237:                                              ; preds = %232, %227
  %238 = load i32, ptr %19, align 4, !tbaa !4
  store i32 %238, ptr %9, align 4
  store i32 1, ptr %32, align 4
  br label %239

239:                                              ; preds = %237, %236, %66, %65, %49
  call void @llvm.lifetime.end.p0(i64 8, ptr %31) #15
  call void @llvm.lifetime.end.p0(i64 4, ptr %30) #15
  call void @llvm.lifetime.end.p0(i64 8, ptr %29) #15
  call void @llvm.lifetime.end.p0(i64 8, ptr %28) #15
  call void @llvm.lifetime.end.p0(i64 8, ptr %27) #15
  call void @llvm.lifetime.end.p0(i64 8, ptr %26) #15
  call void @llvm.lifetime.end.p0(i64 8, ptr %25) #15
  call void @llvm.lifetime.end.p0(i64 8, ptr %24) #15
  call void @llvm.lifetime.end.p0(i64 8, ptr %23) #15
  call void @llvm.lifetime.end.p0(i64 8, ptr %22) #15
  call void @llvm.lifetime.end.p0(i64 8, ptr %21) #15
  call void @llvm.lifetime.end.p0(i64 8, ptr %20) #15
  call void @llvm.lifetime.end.p0(i64 4, ptr %19) #15
  call void @llvm.lifetime.end.p0(i64 4, ptr %18) #15
  %240 = load i32, ptr %9, align 4
  ret i32 %240
}