; Function Attrs: nounwind uwtable
define internal fastcc range(i32 0, 10) i32 @_php_iconv_strpos(ptr noundef nonnull writeonly captures(none) initializes((0, 8)) %0, ptr noundef %1, i64 noundef %2, ptr noundef %3, i64 noundef %4, i64 noundef %5, ptr noundef %6, i1 noundef zeroext %7) unnamed_addr #0 {
  %9 = alloca [4 x i8], align 1
  %10 = alloca ptr, align 8
  %11 = alloca i64, align 8
  %12 = alloca ptr, align 8
  %13 = alloca i64, align 8
  %14 = alloca ptr, align 8
  call void @llvm.lifetime.start.p0(i64 4, ptr nonnull %9) #16
  call void @llvm.lifetime.start.p0(i64 8, ptr nonnull %10) #16
  call void @llvm.lifetime.start.p0(i64 8, ptr nonnull %11) #16
  call void @llvm.lifetime.start.p0(i64 8, ptr nonnull %12) #16
  call void @llvm.lifetime.start.p0(i64 8, ptr nonnull %13) #16
  call void @llvm.lifetime.start.p0(i64 8, ptr nonnull %14) #16
  store i64 -1, ptr %0, align 8, !tbaa !14
  %15 = call i32 @php_iconv_string(ptr noundef %3, i64 noundef %4, ptr noundef nonnull %14, ptr noundef nonnull @_generic_superset_name, ptr noundef %6)
  %.not = icmp eq i32 %15, 0
  br i1 %.not, label %19, label %16

16:                                               ; preds = %8
  %17 = load ptr, ptr %14, align 8, !tbaa !10
  %.not78 = icmp eq ptr %17, null
  br i1 %.not78, label %88, label %18

18:                                               ; preds = %16
  tail call void @_efree(ptr noundef nonnull %17) #16
  br label %88

19:                                               ; preds = %8
  %20 = tail call ptr @iconv_open(ptr noundef nonnull @_generic_superset_name, ptr noundef %6) #16
  %21 = icmp eq ptr %20, inttoptr (i64 -1 to ptr)
  %22 = load ptr, ptr %14, align 8, !tbaa !10
  br i1 %21, label %23, label %29

23:                                               ; preds = %19
  %.not77 = icmp eq ptr %22, null
  br i1 %.not77, label %25, label %24

24:                                               ; preds = %23
  tail call void @_efree(ptr noundef nonnull %22) #16
  br label %25

25:                                               ; preds = %24, %23
  %26 = tail call ptr @__errno_location() #18
  %27 = load i32, ptr %26, align 4, !tbaa !12
  %28 = icmp eq i32 %27, 22
  %.79 = select i1 %28, i32 2, i32 1
  br label %88

29:                                               ; preds = %19
  %30 = getelementptr inbounds nuw i8, ptr %22, i64 24
  %31 = getelementptr inbounds nuw i8, ptr %22, i64 16
  %32 = load i64, ptr %31, align 8, !tbaa !20
  %.not99 = icmp eq i64 %2, 0
  store ptr %1, ptr %10, align 8, !tbaa !7
  store i64 %2, ptr %11, align 8, !tbaa !14
  br i1 %.not99, label %._crit_edge90.thread, label %.lr.ph89

.lr.ph89:                                         ; preds = %29
  %33 = ptrtoint ptr %30 to i64
  br label %34

34:                                               ; preds = %.lr.ph89, %82
  %.05287 = phi i32 [ 0, %.lr.ph89 ], [ %.2, %82 ]
  %.05586 = phi i64 [ -1, %.lr.ph89 ], [ %.3, %82 ]
  %.05885 = phi i64 [ %32, %.lr.ph89 ], [ %.260, %82 ]
  %.06184 = phi ptr [ %30, %.lr.ph89 ], [ %.263, %82 ]
  %.06483 = phi i64 [ 0, %.lr.ph89 ], [ %83, %82 ]
  store ptr %9, ptr %12, align 8, !tbaa !7
  store i64 4, ptr %13, align 8, !tbaa !14
  %35 = load i64, ptr %11, align 8, !tbaa !14
  %.not100 = icmp eq i64 %35, 0
  %. = select i1 %.not100, ptr null, ptr %10
  %36 = select i1 %.not100, ptr null, ptr %11
  %37 = call i64 @iconv(ptr noundef %20, ptr noundef %., ptr noundef %36, ptr noundef nonnull %12, ptr noundef nonnull %13) #16
  %38 = load i64, ptr %13, align 8, !tbaa !14
  %39 = icmp eq i64 %38, 4
  br i1 %39, label %._crit_edge90, label %40

40:                                               ; preds = %34
  %41 = icmp eq i64 %37, -1
  br i1 %41, label %42, label %48

42:                                               ; preds = %40
  %43 = tail call ptr @__errno_location() #18
  %44 = load i32, ptr %43, align 4, !tbaa !12
  switch i32 %44, label %47 [
    i32 22, label %45
    i32 84, label %46
    i32 7, label %48
  ]

45:                                               ; preds = %42
  br label %48

46:                                               ; preds = %42
  br label %48

47:                                               ; preds = %42
  br label %48

48:                                               ; preds = %42, %45, %46, %47, %40
  %.2 = phi i32 [ 6, %47 ], [ %.05287, %42 ], [ 4, %46 ], [ 5, %45 ], [ %.05287, %40 ]
  %.not73 = icmp ult i64 %.06483, %5
  br i1 %.not73, label %82, label %49

49:                                               ; preds = %48
  %bcmp = call i32 @bcmp(ptr noundef nonnull dereferenceable(4) %9, ptr noundef nonnull dereferenceable(4) %.06184, i64 4)
  %50 = icmp eq i32 %bcmp, 0
  br i1 %50, label %51, label %59

51:                                               ; preds = %49
  %52 = icmp eq i64 %.05586, -1
  %spec.select = select i1 %52, i64 %.06483, i64 %.05586
  %53 = getelementptr inbounds nuw i8, ptr %.06184, i64 4
  %54 = add i64 %.05885, -4
  %55 = icmp eq i64 %54, 0
  br i1 %55, label %56, label %82

56:                                               ; preds = %51
  store i64 %spec.select, ptr %0, align 8, !tbaa !14
  br i1 %7, label %57, label %._crit_edge90

57:                                               ; preds = %56
  %58 = load i64, ptr %31, align 8, !tbaa !20
  br label %82

59:                                               ; preds = %49
  %60 = ptrtoint ptr %.06184 to i64
  %61 = sub i64 %60, %33
  %62 = icmp ugt i64 %61, 4
  br i1 %62, label %.lr.ph, label %._crit_edge

.lr.ph:                                           ; preds = %59, %.lr.ph
  %.04982 = phi i64 [ %68, %.lr.ph ], [ 4, %59 ]
  %.05081 = phi i64 [ %.151, %.lr.ph ], [ 0, %59 ]
  %63 = getelementptr inbounds nuw [1 x i8], ptr %30, i64 0, i64 %.04982
  %64 = getelementptr inbounds nuw [1 x i8], ptr %30, i64 0, i64 %.05081
  %bcmp75 = call i32 @bcmp(ptr noundef nonnull dereferenceable(4) %63, ptr noundef nonnull dereferenceable(4) %64, i64 4)
  %65 = icmp eq i32 %bcmp75, 0
  %66 = add i64 %.05081, 4
  %.151 = select i1 %65, i64 %66, i64 0
  %67 = select i1 %65, i64 0, i64 %.05081
  %.1 = add i64 %.04982, 4
  %68 = sub i64 %.1, %67
  %69 = icmp ult i64 %68, %61
  br i1 %69, label %.lr.ph, label %._crit_edge

._crit_edge:                                      ; preds = %.lr.ph, %59
  %.050.lcssa = phi i64 [ 0, %59 ], [ %.151, %.lr.ph ]
  %70 = getelementptr inbounds nuw [1 x i8], ptr %30, i64 0, i64 %.050.lcssa
  %bcmp74 = call i32 @bcmp(ptr noundef nonnull dereferenceable(4) %9, ptr noundef nonnull dereferenceable(4) %70, i64 4)
  %71 = icmp eq i32 %bcmp74, 0
  br i1 %71, label %72, label %80

72:                                               ; preds = %._crit_edge
  %73 = sub i64 %61, %.050.lcssa
  %74 = lshr i64 %73, 2
  %75 = add i64 %74, %.05586
  %76 = add i64 %.050.lcssa, 4
  %77 = getelementptr inbounds nuw [1 x i8], ptr %30, i64 0, i64 %76
  %78 = load i64, ptr %31, align 8, !tbaa !20
  %79 = sub i64 %78, %76
  br label %82

80:                                               ; preds = %._crit_edge
  %81 = load i64, ptr %31, align 8, !tbaa !20
  br label %82

82:                                               ; preds = %72, %80, %48, %51, %57
  %.263 = phi ptr [ %30, %57 ], [ %53, %51 ], [ %.06184, %48 ], [ %77, %72 ], [ %30, %80 ]
  %.260 = phi i64 [ %58, %57 ], [ %54, %51 ], [ %.05885, %48 ], [ %79, %72 ], [ %81, %80 ]
  %.3 = phi i64 [ -1, %57 ], [ %spec.select, %51 ], [ %.05586, %48 ], [ %75, %72 ], [ -1, %80 ]
  %83 = add i64 %.06483, 1
  br i1 %.not100, label %._crit_edge90, label %34

._crit_edge90:                                    ; preds = %82, %34, %56
  %.064.lcssa = phi i64 [ %83, %82 ], [ %.06483, %34 ], [ %.06483, %56 ]
  %.153 = phi i32 [ %.2, %82 ], [ %.05287, %34 ], [ %.2, %56 ]
  %.not76 = icmp eq ptr %22, null
  br i1 %.not76, label %84, label %._crit_edge90.thread

._crit_edge90.thread:                             ; preds = %29, %._crit_edge90
  %.153106 = phi i32 [ %.153, %._crit_edge90 ], [ 0, %29 ]
  %.064.lcssa104 = phi i64 [ %.064.lcssa, %._crit_edge90 ], [ 0, %29 ]
  call void @_efree(ptr noundef nonnull %22) #16
  br label %84

84:                                               ; preds = %._crit_edge90.thread, %._crit_edge90
  %.153107 = phi i32 [ %.153106, %._crit_edge90.thread ], [ %.153, %._crit_edge90 ]
  %.064.lcssa105 = phi i64 [ %.064.lcssa104, %._crit_edge90.thread ], [ %.064.lcssa, %._crit_edge90 ]
  %85 = call i32 @iconv_close(ptr noundef %20) #16
  %86 = icmp eq i32 %.153107, 0
  %87 = icmp ugt i64 %5, %.064.lcssa105
  %or.cond = select i1 %86, i1 %87, i1 false
  %spec.select80 = select i1 %or.cond, i32 9, i32 %.153107
  br label %88

88:                                               ; preds = %84, %25, %16, %18
  %.0 = phi i32 [ %15, %18 ], [ %15, %16 ], [ %.79, %25 ], [ %spec.select80, %84 ]
  call void @llvm.lifetime.end.p0(i64 8, ptr nonnull %14) #16
  call void @llvm.lifetime.end.p0(i64 8, ptr nonnull %13) #16
  call void @llvm.lifetime.end.p0(i64 8, ptr nonnull %12) #16
  call void @llvm.lifetime.end.p0(i64 8, ptr nonnull %11) #16
  call void @llvm.lifetime.end.p0(i64 8, ptr nonnull %10) #16
  call void @llvm.lifetime.end.p0(i64 4, ptr nonnull %9) #16
  ret i32 %.0
}